
Proyecto 2.elf:     file format elf32-avr

Sections:
Idx Name          Size      VMA       LMA       File off  Algn
  0 .data         0000002a  00800100  000008ec  000009a0  2**0
                  CONTENTS, ALLOC, LOAD, DATA
  1 .text         000008ec  00000000  00000000  000000b4  2**1
                  CONTENTS, ALLOC, LOAD, READONLY, CODE
  2 .bss          00000012  0080012a  0080012a  000009ca  2**0
                  ALLOC
  3 .eeprom       00000028  00810000  00810000  000009ca  2**0
                  CONTENTS, ALLOC, LOAD, DATA
  4 .comment      00000030  00000000  00000000  000009f2  2**0
                  CONTENTS, READONLY
  5 .note.gnu.avr.deviceinfo 00000040  00000000  00000000  00000a24  2**2
                  CONTENTS, READONLY
  6 .debug_aranges 00000178  00000000  00000000  00000a68  2**3
                  CONTENTS, READONLY, DEBUGGING
  7 .debug_info   000016a4  00000000  00000000  00000be0  2**0
                  CONTENTS, READONLY, DEBUGGING
  8 .debug_abbrev 00000c0e  00000000  00000000  00002284  2**0
                  CONTENTS, READONLY, DEBUGGING
  9 .debug_line   00000e07  00000000  00000000  00002e92  2**0
                  CONTENTS, READONLY, DEBUGGING
 10 .debug_frame  000002e0  00000000  00000000  00003c9c  2**2
                  CONTENTS, READONLY, DEBUGGING
 11 .debug_str    00000686  00000000  00000000  00003f7c  2**0
                  CONTENTS, READONLY, DEBUGGING
 12 .debug_loc    00000a61  00000000  00000000  00004602  2**0
                  CONTENTS, READONLY, DEBUGGING
 13 .debug_ranges 00000100  00000000  00000000  00005063  2**0
                  CONTENTS, READONLY, DEBUGGING

Disassembly of section .text:

00000000 <__vectors>:
   0:	0c 94 34 00 	jmp	0x68	; 0x68 <__ctors_end>
   4:	0c 94 51 00 	jmp	0xa2	; 0xa2 <__bad_interrupt>
   8:	0c 94 51 00 	jmp	0xa2	; 0xa2 <__bad_interrupt>
   c:	0c 94 51 00 	jmp	0xa2	; 0xa2 <__bad_interrupt>
  10:	0c 94 51 00 	jmp	0xa2	; 0xa2 <__bad_interrupt>
  14:	0c 94 51 00 	jmp	0xa2	; 0xa2 <__bad_interrupt>
  18:	0c 94 51 00 	jmp	0xa2	; 0xa2 <__bad_interrupt>
  1c:	0c 94 51 00 	jmp	0xa2	; 0xa2 <__bad_interrupt>
  20:	0c 94 51 00 	jmp	0xa2	; 0xa2 <__bad_interrupt>
  24:	0c 94 51 00 	jmp	0xa2	; 0xa2 <__bad_interrupt>
  28:	0c 94 51 00 	jmp	0xa2	; 0xa2 <__bad_interrupt>
  2c:	0c 94 50 03 	jmp	0x6a0	; 0x6a0 <__vector_11>
  30:	0c 94 51 00 	jmp	0xa2	; 0xa2 <__bad_interrupt>
  34:	0c 94 51 00 	jmp	0xa2	; 0xa2 <__bad_interrupt>
  38:	0c 94 51 00 	jmp	0xa2	; 0xa2 <__bad_interrupt>
  3c:	0c 94 51 00 	jmp	0xa2	; 0xa2 <__bad_interrupt>
  40:	0c 94 51 00 	jmp	0xa2	; 0xa2 <__bad_interrupt>
  44:	0c 94 51 00 	jmp	0xa2	; 0xa2 <__bad_interrupt>
  48:	0c 94 51 00 	jmp	0xa2	; 0xa2 <__bad_interrupt>
  4c:	0c 94 51 00 	jmp	0xa2	; 0xa2 <__bad_interrupt>
  50:	0c 94 51 00 	jmp	0xa2	; 0xa2 <__bad_interrupt>
  54:	0c 94 51 00 	jmp	0xa2	; 0xa2 <__bad_interrupt>
  58:	0c 94 51 00 	jmp	0xa2	; 0xa2 <__bad_interrupt>
  5c:	0c 94 51 00 	jmp	0xa2	; 0xa2 <__bad_interrupt>
  60:	0c 94 51 00 	jmp	0xa2	; 0xa2 <__bad_interrupt>
  64:	0c 94 51 00 	jmp	0xa2	; 0xa2 <__bad_interrupt>

00000068 <__ctors_end>:
  68:	11 24       	eor	r1, r1
  6a:	1f be       	out	0x3f, r1	; 63
  6c:	cf ef       	ldi	r28, 0xFF	; 255
  6e:	d8 e0       	ldi	r29, 0x08	; 8
  70:	de bf       	out	0x3e, r29	; 62
  72:	cd bf       	out	0x3d, r28	; 61

00000074 <__do_copy_data>:
  74:	11 e0       	ldi	r17, 0x01	; 1
  76:	a0 e0       	ldi	r26, 0x00	; 0
  78:	b1 e0       	ldi	r27, 0x01	; 1
  7a:	ec ee       	ldi	r30, 0xEC	; 236
  7c:	f8 e0       	ldi	r31, 0x08	; 8
  7e:	02 c0       	rjmp	.+4      	; 0x84 <__do_copy_data+0x10>
  80:	05 90       	lpm	r0, Z+
  82:	0d 92       	st	X+, r0
  84:	aa 32       	cpi	r26, 0x2A	; 42
  86:	b1 07       	cpc	r27, r17
  88:	d9 f7       	brne	.-10     	; 0x80 <__do_copy_data+0xc>

0000008a <__do_clear_bss>:
  8a:	21 e0       	ldi	r18, 0x01	; 1
  8c:	aa e2       	ldi	r26, 0x2A	; 42
  8e:	b1 e0       	ldi	r27, 0x01	; 1
  90:	01 c0       	rjmp	.+2      	; 0x94 <.do_clear_bss_start>

00000092 <.do_clear_bss_loop>:
  92:	1d 92       	st	X+, r1

00000094 <.do_clear_bss_start>:
  94:	ac 33       	cpi	r26, 0x3C	; 60
  96:	b2 07       	cpc	r27, r18
  98:	e1 f7       	brne	.-8      	; 0x92 <.do_clear_bss_loop>
  9a:	0e 94 a9 02 	call	0x552	; 0x552 <main>
  9e:	0c 94 74 04 	jmp	0x8e8	; 0x8e8 <_exit>

000000a2 <__bad_interrupt>:
  a2:	0c 94 00 00 	jmp	0	; 0x0 <__vectors>

000000a6 <ADC_Init>:
/****************************************/
// Inicialización ADC
void ADC_Init(void)
{
	// Referencia AVcc = 5V
	ADMUX = (1 << REFS0);
  a6:	80 e4       	ldi	r24, 0x40	; 64
  a8:	80 93 7c 00 	sts	0x007C, r24	; 0x80007c <__TEXT_REGION_LENGTH__+0x7f807c>

	// Desactivar entradas digitales en A0-A3 para reducir ruido
	DIDR0 = (1 << ADC0D) |
  ac:	8f e0       	ldi	r24, 0x0F	; 15
  ae:	80 93 7e 00 	sts	0x007E, r24	; 0x80007e <__TEXT_REGION_LENGTH__+0x7f807e>
	(1 << ADC1D) |
	(1 << ADC2D) |
	(1 << ADC3D);

	// Habilitar ADC, prescaler 128
	ADCSRA = (1 << ADEN) |
  b2:	87 e8       	ldi	r24, 0x87	; 135
  b4:	80 93 7a 00 	sts	0x007A, r24	; 0x80007a <__TEXT_REGION_LENGTH__+0x7f807a>
  b8:	08 95       	ret

000000ba <ADC_Read>:

/****************************************/
// Leer canal ADC
uint16_t ADC_Read(uint8_t channel)
{
	channel &= 0x07;
  ba:	87 70       	andi	r24, 0x07	; 7

	// Seleccionar canal manteniendo AVcc
	ADMUX = (1 << REFS0) | channel;
  bc:	80 64       	ori	r24, 0x40	; 64
  be:	80 93 7c 00 	sts	0x007C, r24	; 0x80007c <__TEXT_REGION_LENGTH__+0x7f807c>
	#else
		//round up by default
		__ticks_dc = (uint32_t)(ceil(fabs(__tmp)));
	#endif

	__builtin_avr_delay_cycles(__ticks_dc);
  c2:	85 e3       	ldi	r24, 0x35	; 53
  c4:	8a 95       	dec	r24
  c6:	f1 f7       	brne	.-4      	; 0xc4 <ADC_Read+0xa>
  c8:	00 00       	nop

	// Pequeńa espera para que el mux se estabilice
	_delay_us(10);

	// Primera lectura dummy
	ADCSRA |= (1 << ADSC);
  ca:	ea e7       	ldi	r30, 0x7A	; 122
  cc:	f0 e0       	ldi	r31, 0x00	; 0
  ce:	80 81       	ld	r24, Z
  d0:	80 64       	ori	r24, 0x40	; 64
  d2:	80 83       	st	Z, r24
	while (ADCSRA & (1 << ADSC))
  d4:	80 91 7a 00 	lds	r24, 0x007A	; 0x80007a <__TEXT_REGION_LENGTH__+0x7f807a>
  d8:	86 fd       	sbrc	r24, 6
  da:	fc cf       	rjmp	.-8      	; 0xd4 <ADC_Read+0x1a>
	{
	}

	// Segunda lectura real
	ADCSRA |= (1 << ADSC);
  dc:	ea e7       	ldi	r30, 0x7A	; 122
  de:	f0 e0       	ldi	r31, 0x00	; 0
  e0:	80 81       	ld	r24, Z
  e2:	80 64       	ori	r24, 0x40	; 64
  e4:	80 83       	st	Z, r24
	while (ADCSRA & (1 << ADSC))
  e6:	80 91 7a 00 	lds	r24, 0x007A	; 0x80007a <__TEXT_REGION_LENGTH__+0x7f807a>
  ea:	86 fd       	sbrc	r24, 6
  ec:	fc cf       	rjmp	.-8      	; 0xe6 <ADC_Read+0x2c>
	{
	}

	return ADC;
  ee:	80 91 78 00 	lds	r24, 0x0078	; 0x800078 <__TEXT_REGION_LENGTH__+0x7f8078>
  f2:	90 91 79 00 	lds	r25, 0x0079	; 0x800079 <__TEXT_REGION_LENGTH__+0x7f8079>
}
  f6:	08 95       	ret

000000f8 <ADC_MapToAngle>:
// Convertir ADC 0-1023 a ángulo 0-180
uint8_t ADC_MapToAngle(uint16_t adc_value)
{
	uint8_t angle;

	if (adc_value > 1023)
  f8:	81 15       	cp	r24, r1
  fa:	24 e0       	ldi	r18, 0x04	; 4
  fc:	92 07       	cpc	r25, r18
  fe:	10 f0       	brcs	.+4      	; 0x104 <ADC_MapToAngle+0xc>
	{
		adc_value = 1023;
 100:	8f ef       	ldi	r24, 0xFF	; 255
 102:	93 e0       	ldi	r25, 0x03	; 3
	}

	angle = (uint8_t)(((uint32_t)adc_value * 180) / 1023);
 104:	9c 01       	movw	r18, r24
 106:	a4 eb       	ldi	r26, 0xB4	; 180
 108:	b0 e0       	ldi	r27, 0x00	; 0
 10a:	0e 94 4b 04 	call	0x896	; 0x896 <__umulhisi3>
 10e:	2f ef       	ldi	r18, 0xFF	; 255
 110:	33 e0       	ldi	r19, 0x03	; 3
 112:	40 e0       	ldi	r20, 0x00	; 0
 114:	50 e0       	ldi	r21, 0x00	; 0
 116:	0e 94 29 04 	call	0x852	; 0x852 <__udivmodsi4>
 11a:	82 2f       	mov	r24, r18

	return angle;
 11c:	08 95       	ret

0000011e <EEPROM_SavePose>:
uint8_t EEMEM eeprom_poses[10][POSE_SIZE];

/****************************************/
// Guardar una pose
void EEPROM_SavePose(uint8_t pose_index, uint8_t angle1, uint8_t angle2, uint8_t angle3, uint8_t angle4)
{
 11e:	ff 92       	push	r15
 120:	0f 93       	push	r16
 122:	1f 93       	push	r17
 124:	cf 93       	push	r28
 126:	df 93       	push	r29
	if (pose_index >= 10)
 128:	8a 30       	cpi	r24, 0x0A	; 10
 12a:	f8 f4       	brcc	.+62     	; 0x16a <EEPROM_SavePose+0x4c>
 12c:	12 2f       	mov	r17, r18
 12e:	f4 2e       	mov	r15, r20
	{
		return;
	}

	eeprom_update_byte(&eeprom_poses[pose_index][0], angle1);
 130:	c8 2f       	mov	r28, r24
 132:	d0 e0       	ldi	r29, 0x00	; 0
 134:	cc 0f       	add	r28, r28
 136:	dd 1f       	adc	r29, r29
 138:	cc 0f       	add	r28, r28
 13a:	dd 1f       	adc	r29, r29
 13c:	ce 01       	movw	r24, r28
 13e:	80 50       	subi	r24, 0x00	; 0
 140:	90 40       	sbci	r25, 0x00	; 0
 142:	0e 94 62 04 	call	0x8c4	; 0x8c4 <eeprom_update_byte>
	eeprom_update_byte(&eeprom_poses[pose_index][1], angle2);
 146:	6f 2d       	mov	r22, r15
 148:	ce 01       	movw	r24, r28
 14a:	8f 5f       	subi	r24, 0xFF	; 255
 14c:	9f 4f       	sbci	r25, 0xFF	; 255
 14e:	0e 94 62 04 	call	0x8c4	; 0x8c4 <eeprom_update_byte>
	eeprom_update_byte(&eeprom_poses[pose_index][2], angle3);
 152:	61 2f       	mov	r22, r17
 154:	ce 01       	movw	r24, r28
 156:	8e 5f       	subi	r24, 0xFE	; 254
 158:	9f 4f       	sbci	r25, 0xFF	; 255
 15a:	0e 94 62 04 	call	0x8c4	; 0x8c4 <eeprom_update_byte>
	eeprom_update_byte(&eeprom_poses[pose_index][3], angle4);
 15e:	60 2f       	mov	r22, r16
 160:	ce 01       	movw	r24, r28
 162:	8d 5f       	subi	r24, 0xFD	; 253
 164:	9f 4f       	sbci	r25, 0xFF	; 255
 166:	0e 94 62 04 	call	0x8c4	; 0x8c4 <eeprom_update_byte>
}
 16a:	df 91       	pop	r29
 16c:	cf 91       	pop	r28
 16e:	1f 91       	pop	r17
 170:	0f 91       	pop	r16
 172:	ff 90       	pop	r15
 174:	08 95       	ret

00000176 <EEPROM_ReadPose>:

/****************************************/
// Leer una pose
void EEPROM_ReadPose(uint8_t pose_index, uint8_t *angle1, uint8_t *angle2, uint8_t *angle3, uint8_t *angle4)
{
 176:	af 92       	push	r10
 178:	bf 92       	push	r11
 17a:	cf 92       	push	r12
 17c:	df 92       	push	r13
 17e:	ef 92       	push	r14
 180:	ff 92       	push	r15
 182:	0f 93       	push	r16
 184:	1f 93       	push	r17
 186:	cf 93       	push	r28
 188:	df 93       	push	r29
	if (pose_index >= 10)
 18a:	8a 30       	cpi	r24, 0x0A	; 10
 18c:	28 f5       	brcc	.+74     	; 0x1d8 <EEPROM_ReadPose+0x62>
 18e:	79 01       	movw	r14, r18
 190:	6a 01       	movw	r12, r20
 192:	5b 01       	movw	r10, r22
	{
		return;
	}

	*angle1 = eeprom_read_byte(&eeprom_poses[pose_index][0]);
 194:	c8 2f       	mov	r28, r24
 196:	d0 e0       	ldi	r29, 0x00	; 0
 198:	cc 0f       	add	r28, r28
 19a:	dd 1f       	adc	r29, r29
 19c:	cc 0f       	add	r28, r28
 19e:	dd 1f       	adc	r29, r29
 1a0:	ce 01       	movw	r24, r28
 1a2:	80 50       	subi	r24, 0x00	; 0
 1a4:	90 40       	sbci	r25, 0x00	; 0
 1a6:	0e 94 5a 04 	call	0x8b4	; 0x8b4 <eeprom_read_byte>
 1aa:	f5 01       	movw	r30, r10
 1ac:	80 83       	st	Z, r24
	*angle2 = eeprom_read_byte(&eeprom_poses[pose_index][1]);
 1ae:	ce 01       	movw	r24, r28
 1b0:	8f 5f       	subi	r24, 0xFF	; 255
 1b2:	9f 4f       	sbci	r25, 0xFF	; 255
 1b4:	0e 94 5a 04 	call	0x8b4	; 0x8b4 <eeprom_read_byte>
 1b8:	f6 01       	movw	r30, r12
 1ba:	80 83       	st	Z, r24
	*angle3 = eeprom_read_byte(&eeprom_poses[pose_index][2]);
 1bc:	ce 01       	movw	r24, r28
 1be:	8e 5f       	subi	r24, 0xFE	; 254
 1c0:	9f 4f       	sbci	r25, 0xFF	; 255
 1c2:	0e 94 5a 04 	call	0x8b4	; 0x8b4 <eeprom_read_byte>
 1c6:	f7 01       	movw	r30, r14
 1c8:	80 83       	st	Z, r24
	*angle4 = eeprom_read_byte(&eeprom_poses[pose_index][3]);
 1ca:	ce 01       	movw	r24, r28
 1cc:	8d 5f       	subi	r24, 0xFD	; 253
 1ce:	9f 4f       	sbci	r25, 0xFF	; 255
 1d0:	0e 94 5a 04 	call	0x8b4	; 0x8b4 <eeprom_read_byte>
 1d4:	f8 01       	movw	r30, r16
 1d6:	80 83       	st	Z, r24
 1d8:	df 91       	pop	r29
 1da:	cf 91       	pop	r28
 1dc:	1f 91       	pop	r17
 1de:	0f 91       	pop	r16
 1e0:	ff 90       	pop	r15
 1e2:	ef 90       	pop	r14
 1e4:	df 90       	pop	r13
 1e6:	cf 90       	pop	r12
 1e8:	bf 90       	pop	r11
 1ea:	af 90       	pop	r10
 1ec:	08 95       	ret

000001ee <modo_manual_adc>:
}

/****************************************/
// MODO MANUAL
void modo_manual_adc(void)
{
 1ee:	0f 93       	push	r16
 1f0:	1f 93       	push	r17
 1f2:	cf 93       	push	r28
 1f4:	df 93       	push	r29
	static uint8_t last_angle[4] = {90, 90, 90, 90};

	uint16_t adc_actual;
	uint8_t angle;

	for (uint8_t i = 0; i < 4; i++)
 1f6:	c0 e0       	ldi	r28, 0x00	; 0
 1f8:	42 c0       	rjmp	.+132    	; 0x27e <modo_manual_adc+0x90>
	{
		adc_actual = ADC_Read(i);
 1fa:	8c 2f       	mov	r24, r28
 1fc:	0e 94 5d 00 	call	0xba	; 0xba <ADC_Read>

		// Filtro suave
		adc_filtrado[i] =
		((adc_filtrado[i] * 7) + adc_actual) / 8;
 200:	0c 2f       	mov	r16, r28
 202:	10 e0       	ldi	r17, 0x00	; 0
 204:	f8 01       	movw	r30, r16
 206:	ee 0f       	add	r30, r30
 208:	ff 1f       	adc	r31, r31
 20a:	ec 5f       	subi	r30, 0xFC	; 252
 20c:	fe 4f       	sbci	r31, 0xFE	; 254
 20e:	40 81       	ld	r20, Z
 210:	51 81       	ldd	r21, Z+1	; 0x01
 212:	9a 01       	movw	r18, r20
 214:	22 0f       	add	r18, r18
 216:	33 1f       	adc	r19, r19
 218:	22 0f       	add	r18, r18
 21a:	33 1f       	adc	r19, r19
 21c:	22 0f       	add	r18, r18
 21e:	33 1f       	adc	r19, r19
 220:	24 1b       	sub	r18, r20
 222:	35 0b       	sbc	r19, r21
 224:	82 0f       	add	r24, r18
 226:	93 1f       	adc	r25, r19
 228:	96 95       	lsr	r25
 22a:	87 95       	ror	r24
 22c:	96 95       	lsr	r25
 22e:	87 95       	ror	r24
 230:	96 95       	lsr	r25
 232:	87 95       	ror	r24
	for (uint8_t i = 0; i < 4; i++)
	{
		adc_actual = ADC_Read(i);

		// Filtro suave
		adc_filtrado[i] =
 234:	91 83       	std	Z+1, r25	; 0x01
 236:	80 83       	st	Z, r24
		((adc_filtrado[i] * 7) + adc_actual) / 8;

		angle = ADC_MapToAngle(adc_filtrado[i]);
 238:	0e 94 7c 00 	call	0xf8	; 0xf8 <ADC_MapToAngle>
 23c:	d8 2f       	mov	r29, r24

		// Deadband
		if ((angle > last_angle[i] + 3) ||
 23e:	28 2f       	mov	r18, r24
 240:	30 e0       	ldi	r19, 0x00	; 0
 242:	f8 01       	movw	r30, r16
 244:	e0 50       	subi	r30, 0x00	; 0
 246:	ff 4f       	sbci	r31, 0xFF	; 255
 248:	80 81       	ld	r24, Z
 24a:	90 e0       	ldi	r25, 0x00	; 0
 24c:	ac 01       	movw	r20, r24
 24e:	4d 5f       	subi	r20, 0xFD	; 253
 250:	5f 4f       	sbci	r21, 0xFF	; 255
 252:	42 17       	cp	r20, r18
 254:	53 07       	cpc	r21, r19
 256:	2c f0       	brlt	.+10     	; 0x262 <modo_manual_adc+0x74>
			(angle + 3 < last_angle[i]))
 258:	2d 5f       	subi	r18, 0xFD	; 253
 25a:	3f 4f       	sbci	r19, 0xFF	; 255
		((adc_filtrado[i] * 7) + adc_actual) / 8;

		angle = ADC_MapToAngle(adc_filtrado[i]);

		// Deadband
		if ((angle > last_angle[i] + 3) ||
 25c:	28 17       	cp	r18, r24
 25e:	39 07       	cpc	r19, r25
 260:	6c f4       	brge	.+26     	; 0x27c <modo_manual_adc+0x8e>
			(angle + 3 < last_angle[i]))
		{
			Servo_SetAngle(i + 1, angle);
 262:	6d 2f       	mov	r22, r29
 264:	81 e0       	ldi	r24, 0x01	; 1
 266:	8c 0f       	add	r24, r28
 268:	0e 94 15 03 	call	0x62a	; 0x62a <Servo_SetAngle>

			last_angle[i] = angle;
 26c:	f8 01       	movw	r30, r16
 26e:	e0 50       	subi	r30, 0x00	; 0
 270:	ff 4f       	sbci	r31, 0xFF	; 255
 272:	d0 83       	st	Z, r29

			angulos_actuales[i] = angle;
 274:	f8 01       	movw	r30, r16
 276:	e4 5f       	subi	r30, 0xF4	; 244
 278:	fe 4f       	sbci	r31, 0xFE	; 254
 27a:	d0 83       	st	Z, r29
	static uint8_t last_angle[4] = {90, 90, 90, 90};

	uint16_t adc_actual;
	uint8_t angle;

	for (uint8_t i = 0; i < 4; i++)
 27c:	cf 5f       	subi	r28, 0xFF	; 255
 27e:	c4 30       	cpi	r28, 0x04	; 4
 280:	08 f4       	brcc	.+2      	; 0x284 <modo_manual_adc+0x96>
 282:	bb cf       	rjmp	.-138    	; 0x1fa <modo_manual_adc+0xc>
			last_angle[i] = angle;

			angulos_actuales[i] = angle;
		}
	}
}
 284:	df 91       	pop	r29
 286:	cf 91       	pop	r28
 288:	1f 91       	pop	r17
 28a:	0f 91       	pop	r16
 28c:	08 95       	ret

0000028e <guardar_pose_siguiente>:
}

/****************************************/
// EEPROM
void guardar_pose_siguiente(void)
{
 28e:	0f 93       	push	r16
	EEPROM_SavePose(
 290:	ec e0       	ldi	r30, 0x0C	; 12
 292:	f1 e0       	ldi	r31, 0x01	; 1
 294:	03 81       	ldd	r16, Z+3	; 0x03
 296:	22 81       	ldd	r18, Z+2	; 0x02
 298:	41 81       	ldd	r20, Z+1	; 0x01
 29a:	60 81       	ld	r22, Z
 29c:	80 91 38 01 	lds	r24, 0x0138	; 0x800138 <indice_pose>
 2a0:	0e 94 8f 00 	call	0x11e	; 0x11e <EEPROM_SavePose>
		angulos_actuales[1],
		angulos_actuales[2],
		angulos_actuales[3]
	);

	indice_pose++;
 2a4:	80 91 38 01 	lds	r24, 0x0138	; 0x800138 <indice_pose>
 2a8:	8f 5f       	subi	r24, 0xFF	; 255
 2aa:	80 93 38 01 	sts	0x0138, r24	; 0x800138 <indice_pose>

	if (indice_pose >= 4)
 2ae:	84 30       	cpi	r24, 0x04	; 4
 2b0:	10 f0       	brcs	.+4      	; 0x2b6 <guardar_pose_siguiente+0x28>
	{
		indice_pose = 0;
 2b2:	10 92 38 01 	sts	0x0138, r1	; 0x800138 <indice_pose>
	}

	// Feedback LED
	PORTB |= (1 << LED_STATUS);
 2b6:	85 b1       	in	r24, 0x05	; 5
 2b8:	80 62       	ori	r24, 0x20	; 32
 2ba:	85 b9       	out	0x05, r24	; 5
	#else
		//round up by default
		__ticks_dc = (uint32_t)(ceil(fabs(__tmp)));
	#endif

	__builtin_avr_delay_cycles(__ticks_dc);
 2bc:	2f ef       	ldi	r18, 0xFF	; 255
 2be:	81 ee       	ldi	r24, 0xE1	; 225
 2c0:	94 e0       	ldi	r25, 0x04	; 4
 2c2:	21 50       	subi	r18, 0x01	; 1
 2c4:	80 40       	sbci	r24, 0x00	; 0
 2c6:	90 40       	sbci	r25, 0x00	; 0
 2c8:	e1 f7       	brne	.-8      	; 0x2c2 <guardar_pose_siguiente+0x34>
 2ca:	00 c0       	rjmp	.+0      	; 0x2cc <guardar_pose_siguiente+0x3e>
 2cc:	00 00       	nop
	_delay_ms(100);
	PORTB &= ~(1 << LED_STATUS);
 2ce:	85 b1       	in	r24, 0x05	; 5
 2d0:	8f 7d       	andi	r24, 0xDF	; 223
 2d2:	85 b9       	out	0x05, r24	; 5
}
 2d4:	0f 91       	pop	r16
 2d6:	08 95       	ret

000002d8 <reproducir_pose_siguiente>:

void reproducir_pose_siguiente(void)
{
 2d8:	0f 93       	push	r16
 2da:	1f 93       	push	r17
 2dc:	cf 93       	push	r28
 2de:	df 93       	push	r29
 2e0:	00 d0       	rcall	.+0      	; 0x2e2 <reproducir_pose_siguiente+0xa>
 2e2:	00 d0       	rcall	.+0      	; 0x2e4 <reproducir_pose_siguiente+0xc>
 2e4:	cd b7       	in	r28, 0x3d	; 61
 2e6:	de b7       	in	r29, 0x3e	; 62
	uint8_t a1;
	uint8_t a2;
	uint8_t a3;
	uint8_t a4;

	EEPROM_ReadPose(
 2e8:	8e 01       	movw	r16, r28
 2ea:	0c 5f       	subi	r16, 0xFC	; 252
 2ec:	1f 4f       	sbci	r17, 0xFF	; 255
 2ee:	9e 01       	movw	r18, r28
 2f0:	2d 5f       	subi	r18, 0xFD	; 253
 2f2:	3f 4f       	sbci	r19, 0xFF	; 255
 2f4:	ae 01       	movw	r20, r28
 2f6:	4e 5f       	subi	r20, 0xFE	; 254
 2f8:	5f 4f       	sbci	r21, 0xFF	; 255
 2fa:	be 01       	movw	r22, r28
 2fc:	6f 5f       	subi	r22, 0xFF	; 255
 2fe:	7f 4f       	sbci	r23, 0xFF	; 255
 300:	80 91 37 01 	lds	r24, 0x0137	; 0x800137 <indice_repro>
 304:	0e 94 bb 00 	call	0x176	; 0x176 <EEPROM_ReadPose>
		&a2,
		&a3,
		&a4
	);

	Servo_SetAngle(1, a1);
 308:	69 81       	ldd	r22, Y+1	; 0x01
 30a:	81 e0       	ldi	r24, 0x01	; 1
 30c:	0e 94 15 03 	call	0x62a	; 0x62a <Servo_SetAngle>
	Servo_SetAngle(2, a2);
 310:	6a 81       	ldd	r22, Y+2	; 0x02
 312:	82 e0       	ldi	r24, 0x02	; 2
 314:	0e 94 15 03 	call	0x62a	; 0x62a <Servo_SetAngle>
	Servo_SetAngle(3, a3);
 318:	6b 81       	ldd	r22, Y+3	; 0x03
 31a:	83 e0       	ldi	r24, 0x03	; 3
 31c:	0e 94 15 03 	call	0x62a	; 0x62a <Servo_SetAngle>
	Servo_SetAngle(4, a4);
 320:	6c 81       	ldd	r22, Y+4	; 0x04
 322:	84 e0       	ldi	r24, 0x04	; 4
 324:	0e 94 15 03 	call	0x62a	; 0x62a <Servo_SetAngle>

	angulos_actuales[0] = a1;
 328:	ec e0       	ldi	r30, 0x0C	; 12
 32a:	f1 e0       	ldi	r31, 0x01	; 1
 32c:	89 81       	ldd	r24, Y+1	; 0x01
 32e:	80 83       	st	Z, r24
	angulos_actuales[1] = a2;
 330:	8a 81       	ldd	r24, Y+2	; 0x02
 332:	81 83       	std	Z+1, r24	; 0x01
	angulos_actuales[2] = a3;
 334:	8b 81       	ldd	r24, Y+3	; 0x03
 336:	82 83       	std	Z+2, r24	; 0x02
	angulos_actuales[3] = a4;
 338:	8c 81       	ldd	r24, Y+4	; 0x04
 33a:	83 83       	std	Z+3, r24	; 0x03

	indice_repro++;
 33c:	80 91 37 01 	lds	r24, 0x0137	; 0x800137 <indice_repro>
 340:	8f 5f       	subi	r24, 0xFF	; 255
 342:	80 93 37 01 	sts	0x0137, r24	; 0x800137 <indice_repro>

	if (indice_repro >= 4)
 346:	84 30       	cpi	r24, 0x04	; 4
 348:	10 f0       	brcs	.+4      	; 0x34e <reproducir_pose_siguiente+0x76>
	{
		indice_repro = 0;
 34a:	10 92 37 01 	sts	0x0137, r1	; 0x800137 <indice_repro>
	}
}
 34e:	0f 90       	pop	r0
 350:	0f 90       	pop	r0
 352:	0f 90       	pop	r0
 354:	0f 90       	pop	r0
 356:	df 91       	pop	r29
 358:	cf 91       	pop	r28
 35a:	1f 91       	pop	r17
 35c:	0f 91       	pop	r16
 35e:	08 95       	ret

00000360 <enviar_feedback>:

/****************************************/
// Feedback UART
void enviar_feedback(uint8_t servo, uint8_t angle)
{
 360:	cf 93       	push	r28
 362:	df 93       	push	r29
 364:	d8 2f       	mov	r29, r24
 366:	c6 2f       	mov	r28, r22
	UART_SendChar('R');
 368:	82 e5       	ldi	r24, 0x52	; 82
 36a:	0e 94 d0 03 	call	0x7a0	; 0x7a0 <UART_SendChar>

	UART_SendNumber(servo);
 36e:	8d 2f       	mov	r24, r29
 370:	0e 94 eb 03 	call	0x7d6	; 0x7d6 <UART_SendNumber>

	UART_SendChar(':');
 374:	8a e3       	ldi	r24, 0x3A	; 58
 376:	0e 94 d0 03 	call	0x7a0	; 0x7a0 <UART_SendChar>

	UART_SendNumber(angle);
 37a:	8c 2f       	mov	r24, r28
 37c:	0e 94 eb 03 	call	0x7d6	; 0x7d6 <UART_SendNumber>

	UART_SendText("\n");
 380:	88 e1       	ldi	r24, 0x18	; 24
 382:	91 e0       	ldi	r25, 0x01	; 1
 384:	0e 94 de 03 	call	0x7bc	; 0x7bc <UART_SendText>
}
 388:	df 91       	pop	r29
 38a:	cf 91       	pop	r28
 38c:	08 95       	ret

0000038e <modo_adafruit_uart>:
}

/****************************************/
// MODO ADAFRUIT / UART
void modo_adafruit_uart(void)
{
 38e:	1f 93       	push	r17
 390:	cf 93       	push	r28
 392:	df 93       	push	r29
	static char buffer[12];
	static uint8_t index = 0;

	char c;

	while (UART_Available())
 394:	62 c0       	rjmp	.+196    	; 0x45a <__EEPROM_REGION_LENGTH__+0x5a>
	{
		c = UART_ReceiveChar();
 396:	0e 94 d7 03 	call	0x7ae	; 0x7ae <UART_ReceiveChar>

		if (c == '\n' || c == '\r')
 39a:	8a 30       	cpi	r24, 0x0A	; 10
 39c:	19 f0       	breq	.+6      	; 0x3a4 <modo_adafruit_uart+0x16>
 39e:	8d 30       	cpi	r24, 0x0D	; 13
 3a0:	09 f0       	breq	.+2      	; 0x3a4 <modo_adafruit_uart+0x16>
 3a2:	4c c0       	rjmp	.+152    	; 0x43c <__EEPROM_REGION_LENGTH__+0x3c>
		{
			buffer[index] = '\0';
 3a4:	80 91 36 01 	lds	r24, 0x0136	; 0x800136 <index.1813>
 3a8:	e8 2f       	mov	r30, r24
 3aa:	f0 e0       	ldi	r31, 0x00	; 0
 3ac:	e6 5d       	subi	r30, 0xD6	; 214
 3ae:	fe 4f       	sbci	r31, 0xFE	; 254
 3b0:	10 82       	st	Z, r1

			if (index >= 4 && buffer[0] == 'S' && buffer[2] == ':')
 3b2:	84 30       	cpi	r24, 0x04	; 4
 3b4:	08 f4       	brcc	.+2      	; 0x3b8 <modo_adafruit_uart+0x2a>
 3b6:	3f c0       	rjmp	.+126    	; 0x436 <__EEPROM_REGION_LENGTH__+0x36>
 3b8:	80 91 2a 01 	lds	r24, 0x012A	; 0x80012a <__data_end>
 3bc:	83 35       	cpi	r24, 0x53	; 83
 3be:	d9 f5       	brne	.+118    	; 0x436 <__EEPROM_REGION_LENGTH__+0x36>
 3c0:	80 91 2c 01 	lds	r24, 0x012C	; 0x80012c <__data_end+0x2>
 3c4:	8a 33       	cpi	r24, 0x3A	; 58
 3c6:	b9 f5       	brne	.+110    	; 0x436 <__EEPROM_REGION_LENGTH__+0x36>
			{
				uint8_t servo = buffer[1] - '0';
 3c8:	40 91 2b 01 	lds	r20, 0x012B	; 0x80012b <__data_end+0x1>
 3cc:	10 ed       	ldi	r17, 0xD0	; 208
 3ce:	14 0f       	add	r17, r20
				uint16_t angle = 0;

				for (uint8_t i = 3; buffer[i] != '\0'; i++)
 3d0:	93 e0       	ldi	r25, 0x03	; 3
			buffer[index] = '\0';

			if (index >= 4 && buffer[0] == 'S' && buffer[2] == ':')
			{
				uint8_t servo = buffer[1] - '0';
				uint16_t angle = 0;
 3d2:	c0 e0       	ldi	r28, 0x00	; 0
 3d4:	d0 e0       	ldi	r29, 0x00	; 0

				for (uint8_t i = 3; buffer[i] != '\0'; i++)
 3d6:	13 c0       	rjmp	.+38     	; 0x3fe <modo_adafruit_uart+0x70>
				{
					if (buffer[i] >= '0' && buffer[i] <= '9')
 3d8:	20 ed       	ldi	r18, 0xD0	; 208
 3da:	28 0f       	add	r18, r24
 3dc:	2a 30       	cpi	r18, 0x0A	; 10
 3de:	70 f4       	brcc	.+28     	; 0x3fc <modo_adafruit_uart+0x6e>
					{
						angle = (angle * 10) + (buffer[i] - '0');
 3e0:	9e 01       	movw	r18, r28
 3e2:	22 0f       	add	r18, r18
 3e4:	33 1f       	adc	r19, r19
 3e6:	cc 0f       	add	r28, r28
 3e8:	dd 1f       	adc	r29, r29
 3ea:	cc 0f       	add	r28, r28
 3ec:	dd 1f       	adc	r29, r29
 3ee:	cc 0f       	add	r28, r28
 3f0:	dd 1f       	adc	r29, r29
 3f2:	c2 0f       	add	r28, r18
 3f4:	d3 1f       	adc	r29, r19
 3f6:	c8 0f       	add	r28, r24
 3f8:	d1 1d       	adc	r29, r1
 3fa:	e0 97       	sbiw	r28, 0x30	; 48
			if (index >= 4 && buffer[0] == 'S' && buffer[2] == ':')
			{
				uint8_t servo = buffer[1] - '0';
				uint16_t angle = 0;

				for (uint8_t i = 3; buffer[i] != '\0'; i++)
 3fc:	9f 5f       	subi	r25, 0xFF	; 255
 3fe:	e9 2f       	mov	r30, r25
 400:	f0 e0       	ldi	r31, 0x00	; 0
 402:	e6 5d       	subi	r30, 0xD6	; 214
 404:	fe 4f       	sbci	r31, 0xFE	; 254
 406:	80 81       	ld	r24, Z
 408:	81 11       	cpse	r24, r1
 40a:	e6 cf       	rjmp	.-52     	; 0x3d8 <modo_adafruit_uart+0x4a>
					{
						angle = (angle * 10) + (buffer[i] - '0');
					}
				}

				if (angle > 180)
 40c:	c5 3b       	cpi	r28, 0xB5	; 181
 40e:	d1 05       	cpc	r29, r1
 410:	10 f0       	brcs	.+4      	; 0x416 <__EEPROM_REGION_LENGTH__+0x16>
				{
					angle = 180;
 412:	c4 eb       	ldi	r28, 0xB4	; 180
 414:	d0 e0       	ldi	r29, 0x00	; 0
				}

				if (servo >= 1 && servo <= 4)
 416:	41 53       	subi	r20, 0x31	; 49
 418:	44 30       	cpi	r20, 0x04	; 4
 41a:	68 f4       	brcc	.+26     	; 0x436 <__EEPROM_REGION_LENGTH__+0x36>
				{
					Servo_SetAngle(servo, (uint8_t)angle);
 41c:	6c 2f       	mov	r22, r28
 41e:	81 2f       	mov	r24, r17
 420:	0e 94 15 03 	call	0x62a	; 0x62a <Servo_SetAngle>
					angulos_actuales[servo - 1] = (uint8_t)angle;
 424:	e1 2f       	mov	r30, r17
 426:	f0 e0       	ldi	r31, 0x00	; 0
 428:	e5 5f       	subi	r30, 0xF5	; 245
 42a:	fe 4f       	sbci	r31, 0xFE	; 254
 42c:	c0 83       	st	Z, r28
					enviar_feedback(servo, (uint8_t)angle);
 42e:	6c 2f       	mov	r22, r28
 430:	81 2f       	mov	r24, r17
 432:	0e 94 b0 01 	call	0x360	; 0x360 <enviar_feedback>
				}
			}

			index = 0;
 436:	10 92 36 01 	sts	0x0136, r1	; 0x800136 <index.1813>
 43a:	0f c0       	rjmp	.+30     	; 0x45a <__EEPROM_REGION_LENGTH__+0x5a>
		}
		else
		{
			if (index < sizeof(buffer) - 1)
 43c:	90 91 36 01 	lds	r25, 0x0136	; 0x800136 <index.1813>
 440:	9b 30       	cpi	r25, 0x0B	; 11
 442:	48 f4       	brcc	.+18     	; 0x456 <__EEPROM_REGION_LENGTH__+0x56>
			{
				buffer[index] = c;
 444:	e9 2f       	mov	r30, r25
 446:	f0 e0       	ldi	r31, 0x00	; 0
 448:	e6 5d       	subi	r30, 0xD6	; 214
 44a:	fe 4f       	sbci	r31, 0xFE	; 254
 44c:	80 83       	st	Z, r24
				index++;
 44e:	9f 5f       	subi	r25, 0xFF	; 255
 450:	90 93 36 01 	sts	0x0136, r25	; 0x800136 <index.1813>
 454:	02 c0       	rjmp	.+4      	; 0x45a <__EEPROM_REGION_LENGTH__+0x5a>
			}
			else
			{
				index = 0;
 456:	10 92 36 01 	sts	0x0136, r1	; 0x800136 <index.1813>
	static char buffer[12];
	static uint8_t index = 0;

	char c;

	while (UART_Available())
 45a:	0e 94 cc 03 	call	0x798	; 0x798 <UART_Available>
 45e:	81 11       	cpse	r24, r1
 460:	9a cf       	rjmp	.-204    	; 0x396 <modo_adafruit_uart+0x8>
			{
				index = 0;
			}
		}
	}
}
 462:	df 91       	pop	r29
 464:	cf 91       	pop	r28
 466:	1f 91       	pop	r17
 468:	08 95       	ret

0000046a <indicar_modo>:

/****************************************/
// Indicar modo con LED
void indicar_modo(void)
{
	uint8_t veces = modo_actual + 1;
 46a:	20 91 39 01 	lds	r18, 0x0139	; 0x800139 <modo_actual>
 46e:	2f 5f       	subi	r18, 0xFF	; 255

	for (uint8_t i = 0; i < veces; i++)
 470:	90 e0       	ldi	r25, 0x00	; 0
 472:	19 c0       	rjmp	.+50     	; 0x4a6 <indicar_modo+0x3c>
	{
		PORTB |= (1 << LED_STATUS);
 474:	85 b1       	in	r24, 0x05	; 5
 476:	80 62       	ori	r24, 0x20	; 32
 478:	85 b9       	out	0x05, r24	; 5
 47a:	3f ef       	ldi	r19, 0xFF	; 255
 47c:	43 ec       	ldi	r20, 0xC3	; 195
 47e:	89 e0       	ldi	r24, 0x09	; 9
 480:	31 50       	subi	r19, 0x01	; 1
 482:	40 40       	sbci	r20, 0x00	; 0
 484:	80 40       	sbci	r24, 0x00	; 0
 486:	e1 f7       	brne	.-8      	; 0x480 <indicar_modo+0x16>
 488:	00 c0       	rjmp	.+0      	; 0x48a <indicar_modo+0x20>
 48a:	00 00       	nop

		_delay_ms(200);

		PORTB &= ~(1 << LED_STATUS);
 48c:	85 b1       	in	r24, 0x05	; 5
 48e:	8f 7d       	andi	r24, 0xDF	; 223
 490:	85 b9       	out	0x05, r24	; 5
 492:	3f ef       	ldi	r19, 0xFF	; 255
 494:	43 ec       	ldi	r20, 0xC3	; 195
 496:	89 e0       	ldi	r24, 0x09	; 9
 498:	31 50       	subi	r19, 0x01	; 1
 49a:	40 40       	sbci	r20, 0x00	; 0
 49c:	80 40       	sbci	r24, 0x00	; 0
 49e:	e1 f7       	brne	.-8      	; 0x498 <indicar_modo+0x2e>
 4a0:	00 c0       	rjmp	.+0      	; 0x4a2 <indicar_modo+0x38>
 4a2:	00 00       	nop
// Indicar modo con LED
void indicar_modo(void)
{
	uint8_t veces = modo_actual + 1;

	for (uint8_t i = 0; i < veces; i++)
 4a4:	9f 5f       	subi	r25, 0xFF	; 255
 4a6:	92 17       	cp	r25, r18
 4a8:	28 f3       	brcs	.-54     	; 0x474 <indicar_modo+0xa>

		PORTB &= ~(1 << LED_STATUS);

		_delay_ms(200);
	}
}
 4aa:	08 95       	ret

000004ac <setup>:
/****************************************/
// NON-Interrupt subroutines

void setup(void)
{
	Servo_Init();
 4ac:	0e 94 e1 02 	call	0x5c2	; 0x5c2 <Servo_Init>
	ADC_Init();
 4b0:	0e 94 53 00 	call	0xa6	; 0xa6 <ADC_Init>
	UART_Init();
 4b4:	0e 94 c0 03 	call	0x780	; 0x780 <UART_Init>

	// Botones como entrada
	DDRD &= ~((1 << BTN_MODO) |
 4b8:	8a b1       	in	r24, 0x0a	; 10
 4ba:	8b 76       	andi	r24, 0x6B	; 107
 4bc:	8a b9       	out	0x0a, r24	; 10
			  (1 << BTN_GUARDAR) |
			  (1 << BTN_REPRODUCIR));

	// Pull-up interno
	PORTD |= (1 << BTN_MODO) |
 4be:	8b b1       	in	r24, 0x0b	; 11
 4c0:	84 69       	ori	r24, 0x94	; 148
 4c2:	8b b9       	out	0x0b, r24	; 11
			 (1 << BTN_GUARDAR) |
			 (1 << BTN_REPRODUCIR);

	// LED D13 como salida
	DDRB |= (1 << LED_STATUS);
 4c4:	84 b1       	in	r24, 0x04	; 4
 4c6:	80 62       	ori	r24, 0x20	; 32
 4c8:	84 b9       	out	0x04, r24	; 4

	PORTB &= ~(1 << LED_STATUS);
 4ca:	85 b1       	in	r24, 0x05	; 5
 4cc:	8f 7d       	andi	r24, 0xDF	; 223
 4ce:	85 b9       	out	0x05, r24	; 5

	// Posición inicial
	Servo_SetAngle(1, 90);
 4d0:	6a e5       	ldi	r22, 0x5A	; 90
 4d2:	81 e0       	ldi	r24, 0x01	; 1
 4d4:	0e 94 15 03 	call	0x62a	; 0x62a <Servo_SetAngle>
	Servo_SetAngle(2, 90);
 4d8:	6a e5       	ldi	r22, 0x5A	; 90
 4da:	82 e0       	ldi	r24, 0x02	; 2
 4dc:	0e 94 15 03 	call	0x62a	; 0x62a <Servo_SetAngle>
	Servo_SetAngle(3, 90);
 4e0:	6a e5       	ldi	r22, 0x5A	; 90
 4e2:	83 e0       	ldi	r24, 0x03	; 3
 4e4:	0e 94 15 03 	call	0x62a	; 0x62a <Servo_SetAngle>
	Servo_SetAngle(4, 90);
 4e8:	6a e5       	ldi	r22, 0x5A	; 90
 4ea:	84 e0       	ldi	r24, 0x04	; 4
 4ec:	0e 94 15 03 	call	0x62a	; 0x62a <Servo_SetAngle>

	indicar_modo();
 4f0:	0e 94 35 02 	call	0x46a	; 0x46a <indicar_modo>
 4f4:	08 95       	ret

000004f6 <boton_presionado>:

/****************************************/
// Leer botón
uint8_t boton_presionado(uint8_t pin)
{
	if (!(PIND & (1 << pin)))
 4f6:	29 b1       	in	r18, 0x09	; 9
 4f8:	48 2f       	mov	r20, r24
 4fa:	30 e0       	ldi	r19, 0x00	; 0
 4fc:	08 2e       	mov	r0, r24
 4fe:	02 c0       	rjmp	.+4      	; 0x504 <boton_presionado+0xe>
 500:	35 95       	asr	r19
 502:	27 95       	ror	r18
 504:	0a 94       	dec	r0
 506:	e2 f7       	brpl	.-8      	; 0x500 <boton_presionado+0xa>
 508:	20 fd       	sbrc	r18, 0
 50a:	1f c0       	rjmp	.+62     	; 0x54a <boton_presionado+0x54>
 50c:	2f ef       	ldi	r18, 0xFF	; 255
 50e:	39 ef       	ldi	r19, 0xF9	; 249
 510:	60 e0       	ldi	r22, 0x00	; 0
 512:	21 50       	subi	r18, 0x01	; 1
 514:	30 40       	sbci	r19, 0x00	; 0
 516:	60 40       	sbci	r22, 0x00	; 0
 518:	e1 f7       	brne	.-8      	; 0x512 <boton_presionado+0x1c>
 51a:	00 c0       	rjmp	.+0      	; 0x51c <boton_presionado+0x26>
 51c:	00 00       	nop
	{
		_delay_ms(20);

		if (!(PIND & (1 << pin)))
 51e:	29 b1       	in	r18, 0x09	; 9
 520:	30 e0       	ldi	r19, 0x00	; 0
 522:	b9 01       	movw	r22, r18
 524:	02 c0       	rjmp	.+4      	; 0x52a <boton_presionado+0x34>
 526:	75 95       	asr	r23
 528:	67 95       	ror	r22
 52a:	8a 95       	dec	r24
 52c:	e2 f7       	brpl	.-8      	; 0x526 <boton_presionado+0x30>
 52e:	60 fd       	sbrc	r22, 0
 530:	0e c0       	rjmp	.+28     	; 0x54e <boton_presionado+0x58>
		{
			while (!(PIND & (1 << pin)))
 532:	89 b1       	in	r24, 0x09	; 9
 534:	90 e0       	ldi	r25, 0x00	; 0
 536:	04 2e       	mov	r0, r20
 538:	02 c0       	rjmp	.+4      	; 0x53e <boton_presionado+0x48>
 53a:	95 95       	asr	r25
 53c:	87 95       	ror	r24
 53e:	0a 94       	dec	r0
 540:	e2 f7       	brpl	.-8      	; 0x53a <boton_presionado+0x44>
 542:	80 ff       	sbrs	r24, 0
 544:	f6 cf       	rjmp	.-20     	; 0x532 <boton_presionado+0x3c>
			{
			}

			return 1;
 546:	81 e0       	ldi	r24, 0x01	; 1
 548:	08 95       	ret
		}
	}

	return 0;
 54a:	80 e0       	ldi	r24, 0x00	; 0
 54c:	08 95       	ret
 54e:	80 e0       	ldi	r24, 0x00	; 0
}
 550:	08 95       	ret

00000552 <main>:

/****************************************/
// Main Function
int main(void)
{
	setup();
 552:	0e 94 56 02 	call	0x4ac	; 0x4ac <setup>

	while (1)
	{
		// Cambiar modo
		if (boton_presionado(BTN_MODO))
 556:	87 e0       	ldi	r24, 0x07	; 7
 558:	0e 94 7b 02 	call	0x4f6	; 0x4f6 <boton_presionado>
 55c:	88 23       	and	r24, r24
 55e:	59 f0       	breq	.+22     	; 0x576 <main+0x24>
		{
			modo_actual++;
 560:	80 91 39 01 	lds	r24, 0x0139	; 0x800139 <modo_actual>
 564:	8f 5f       	subi	r24, 0xFF	; 255
 566:	80 93 39 01 	sts	0x0139, r24	; 0x800139 <modo_actual>

			if (modo_actual > MODO_ADAFRUIT)
 56a:	83 30       	cpi	r24, 0x03	; 3
 56c:	10 f0       	brcs	.+4      	; 0x572 <main+0x20>
			{
				modo_actual = MODO_MANUAL;
 56e:	10 92 39 01 	sts	0x0139, r1	; 0x800139 <modo_actual>
			}

			indicar_modo();
 572:	0e 94 35 02 	call	0x46a	; 0x46a <indicar_modo>
		}

		switch (modo_actual)
 576:	80 91 39 01 	lds	r24, 0x0139	; 0x800139 <modo_actual>
 57a:	81 30       	cpi	r24, 0x01	; 1
 57c:	39 f0       	breq	.+14     	; 0x58c <main+0x3a>
 57e:	18 f0       	brcs	.+6      	; 0x586 <main+0x34>
 580:	82 30       	cpi	r24, 0x02	; 2
 582:	91 f0       	breq	.+36     	; 0x5a8 <main+0x56>
 584:	13 c0       	rjmp	.+38     	; 0x5ac <main+0x5a>
		{
			/********************************/
			// MODO MANUAL
			case MODO_MANUAL:

				modo_manual_adc();
 586:	0e 94 f7 00 	call	0x1ee	; 0x1ee <modo_manual_adc>

			break;
 58a:	10 c0       	rjmp	.+32     	; 0x5ac <main+0x5a>

			/********************************/
			// MODO EEPROM
			case MODO_EEPROM:

				if (boton_presionado(BTN_GUARDAR))
 58c:	82 e0       	ldi	r24, 0x02	; 2
 58e:	0e 94 7b 02 	call	0x4f6	; 0x4f6 <boton_presionado>
 592:	81 11       	cpse	r24, r1
				{
					guardar_pose_siguiente();
 594:	0e 94 47 01 	call	0x28e	; 0x28e <guardar_pose_siguiente>
				}

				if (boton_presionado(BTN_REPRODUCIR))
 598:	84 e0       	ldi	r24, 0x04	; 4
 59a:	0e 94 7b 02 	call	0x4f6	; 0x4f6 <boton_presionado>
 59e:	88 23       	and	r24, r24
 5a0:	29 f0       	breq	.+10     	; 0x5ac <main+0x5a>
				{
					reproducir_pose_siguiente();
 5a2:	0e 94 6c 01 	call	0x2d8	; 0x2d8 <reproducir_pose_siguiente>
 5a6:	02 c0       	rjmp	.+4      	; 0x5ac <main+0x5a>

			/********************************/
			// MODO ADAFRUIT / UART
			case MODO_ADAFRUIT:

				modo_adafruit_uart();
 5a8:	0e 94 c7 01 	call	0x38e	; 0x38e <modo_adafruit_uart>

			break;
		}

		if (modo_actual != MODO_ADAFRUIT)
 5ac:	80 91 39 01 	lds	r24, 0x0139	; 0x800139 <modo_actual>
 5b0:	82 30       	cpi	r24, 0x02	; 2
 5b2:	89 f2       	breq	.-94     	; 0x556 <main+0x4>
 5b4:	8f e1       	ldi	r24, 0x1F	; 31
 5b6:	9e e4       	ldi	r25, 0x4E	; 78
 5b8:	01 97       	sbiw	r24, 0x01	; 1
 5ba:	f1 f7       	brne	.-4      	; 0x5b8 <main+0x66>
 5bc:	00 c0       	rjmp	.+0      	; 0x5be <main+0x6c>
 5be:	00 00       	nop
 5c0:	ca cf       	rjmp	.-108    	; 0x556 <main+0x4>

000005c2 <Servo_Init>:
	uint8_t sreg = SREG;
	cli();

	servo_ticks[index] = ticks;

	SREG = sreg;
 5c2:	84 b1       	in	r24, 0x04	; 4
 5c4:	82 60       	ori	r24, 0x02	; 2
 5c6:	84 b9       	out	0x04, r24	; 4
 5c8:	84 b1       	in	r24, 0x04	; 4
 5ca:	84 60       	ori	r24, 0x04	; 4
 5cc:	84 b9       	out	0x04, r24	; 4
 5ce:	84 b1       	in	r24, 0x04	; 4
 5d0:	88 60       	ori	r24, 0x08	; 8
 5d2:	84 b9       	out	0x04, r24	; 4
 5d4:	8a b1       	in	r24, 0x0a	; 10
 5d6:	80 62       	ori	r24, 0x20	; 32
 5d8:	8a b9       	out	0x0a, r24	; 10
 5da:	85 b1       	in	r24, 0x05	; 5
 5dc:	8d 7f       	andi	r24, 0xFD	; 253
 5de:	85 b9       	out	0x05, r24	; 5
 5e0:	85 b1       	in	r24, 0x05	; 5
 5e2:	8b 7f       	andi	r24, 0xFB	; 251
 5e4:	85 b9       	out	0x05, r24	; 5
 5e6:	85 b1       	in	r24, 0x05	; 5
 5e8:	87 7f       	andi	r24, 0xF7	; 247
 5ea:	85 b9       	out	0x05, r24	; 5
 5ec:	8b b1       	in	r24, 0x0b	; 11
 5ee:	8f 7d       	andi	r24, 0xDF	; 223
 5f0:	8b b9       	out	0x0b, r24	; 11
 5f2:	10 92 80 00 	sts	0x0080, r1	; 0x800080 <__TEXT_REGION_LENGTH__+0x7f8080>
 5f6:	e1 e8       	ldi	r30, 0x81	; 129
 5f8:	f0 e0       	ldi	r31, 0x00	; 0
 5fa:	10 82       	st	Z, r1
 5fc:	10 92 85 00 	sts	0x0085, r1	; 0x800085 <__TEXT_REGION_LENGTH__+0x7f8085>
 600:	10 92 84 00 	sts	0x0084, r1	; 0x800084 <__TEXT_REGION_LENGTH__+0x7f8084>
 604:	80 81       	ld	r24, Z
 606:	88 60       	ori	r24, 0x08	; 8
 608:	80 83       	st	Z, r24
 60a:	80 81       	ld	r24, Z
 60c:	82 60       	ori	r24, 0x02	; 2
 60e:	80 83       	st	Z, r24
 610:	83 e6       	ldi	r24, 0x63	; 99
 612:	90 e0       	ldi	r25, 0x00	; 0
 614:	90 93 89 00 	sts	0x0089, r25	; 0x800089 <__TEXT_REGION_LENGTH__+0x7f8089>
 618:	80 93 88 00 	sts	0x0088, r24	; 0x800088 <__TEXT_REGION_LENGTH__+0x7f8088>
 61c:	ef e6       	ldi	r30, 0x6F	; 111
 61e:	f0 e0       	ldi	r31, 0x00	; 0
 620:	80 81       	ld	r24, Z
 622:	82 60       	ori	r24, 0x02	; 2
 624:	80 83       	st	Z, r24
 626:	78 94       	sei
 628:	08 95       	ret

0000062a <Servo_SetAngle>:
 62a:	0f 93       	push	r16
 62c:	1f 93       	push	r17
 62e:	cf 93       	push	r28
 630:	df 93       	push	r29
 632:	81 50       	subi	r24, 0x01	; 1
 634:	84 30       	cpi	r24, 0x04	; 4
 636:	78 f5       	brcc	.+94     	; 0x696 <Servo_SetAngle+0x6c>
 638:	65 3b       	cpi	r22, 0xB5	; 181
 63a:	08 f0       	brcs	.+2      	; 0x63e <Servo_SetAngle+0x14>
 63c:	64 eb       	ldi	r22, 0xB4	; 180
 63e:	c8 2f       	mov	r28, r24
 640:	d0 e0       	ldi	r29, 0x00	; 0
 642:	cc 0f       	add	r28, r28
 644:	dd 1f       	adc	r29, r29
 646:	fe 01       	movw	r30, r28
 648:	e6 5e       	subi	r30, 0xE6	; 230
 64a:	fe 4f       	sbci	r31, 0xFE	; 254
 64c:	a0 81       	ld	r26, Z
 64e:	b1 81       	ldd	r27, Z+1	; 0x01
 650:	fe 01       	movw	r30, r28
 652:	ee 5d       	subi	r30, 0xDE	; 222
 654:	fe 4f       	sbci	r31, 0xFE	; 254
 656:	00 81       	ld	r16, Z
 658:	11 81       	ldd	r17, Z+1	; 0x01
 65a:	a0 1b       	sub	r26, r16
 65c:	b1 0b       	sbc	r27, r17
 65e:	26 2f       	mov	r18, r22
 660:	30 e0       	ldi	r19, 0x00	; 0
 662:	0e 94 4b 04 	call	0x896	; 0x896 <__umulhisi3>
 666:	24 eb       	ldi	r18, 0xB4	; 180
 668:	30 e0       	ldi	r19, 0x00	; 0
 66a:	40 e0       	ldi	r20, 0x00	; 0
 66c:	50 e0       	ldi	r21, 0x00	; 0
 66e:	0e 94 29 04 	call	0x852	; 0x852 <__udivmodsi4>
 672:	20 0f       	add	r18, r16
 674:	31 1f       	adc	r19, r17
 676:	36 95       	lsr	r19
 678:	27 95       	ror	r18
 67a:	ab e7       	ldi	r26, 0x7B	; 123
 67c:	b4 e1       	ldi	r27, 0x14	; 20
 67e:	0e 94 4b 04 	call	0x896	; 0x896 <__umulhisi3>
 682:	9c 01       	movw	r18, r24
 684:	36 95       	lsr	r19
 686:	27 95       	ror	r18
 688:	9f b7       	in	r25, 0x3f	; 63
 68a:	f8 94       	cli
 68c:	c0 5f       	subi	r28, 0xF0	; 240
 68e:	de 4f       	sbci	r29, 0xFE	; 254
 690:	39 83       	std	Y+1, r19	; 0x01
 692:	28 83       	st	Y, r18
 694:	9f bf       	out	0x3f, r25	; 63
 696:	df 91       	pop	r29
 698:	cf 91       	pop	r28
 69a:	1f 91       	pop	r17
 69c:	0f 91       	pop	r16
 69e:	08 95       	ret

000006a0 <__vector_11>:
}

/****************************************/
// Timer1 interrupt
ISR(TIMER1_COMPA_vect)
{
 6a0:	1f 92       	push	r1
 6a2:	0f 92       	push	r0
 6a4:	0f b6       	in	r0, 0x3f	; 63
 6a6:	0f 92       	push	r0
 6a8:	11 24       	eor	r1, r1
 6aa:	2f 93       	push	r18
 6ac:	3f 93       	push	r19
 6ae:	8f 93       	push	r24
 6b0:	9f 93       	push	r25
	// Inicio del frame de 20 ms
	if (timer1_counter == 0)
 6b2:	80 91 3a 01 	lds	r24, 0x013A	; 0x80013a <timer1_counter>
 6b6:	90 91 3b 01 	lds	r25, 0x013B	; 0x80013b <timer1_counter+0x1>
 6ba:	89 2b       	or	r24, r25
 6bc:	61 f4       	brne	.+24     	; 0x6d6 <__vector_11+0x36>
	{
		PORTB |= (1 << PORTB1); // Servo 1 - D9
 6be:	85 b1       	in	r24, 0x05	; 5
 6c0:	82 60       	ori	r24, 0x02	; 2
 6c2:	85 b9       	out	0x05, r24	; 5
		PORTB |= (1 << PORTB2); // Servo 2 - D10
 6c4:	85 b1       	in	r24, 0x05	; 5
 6c6:	84 60       	ori	r24, 0x04	; 4
 6c8:	85 b9       	out	0x05, r24	; 5
		PORTB |= (1 << PORTB3); // Servo 3 - D11
 6ca:	85 b1       	in	r24, 0x05	; 5
 6cc:	88 60       	ori	r24, 0x08	; 8
 6ce:	85 b9       	out	0x05, r24	; 5
		PORTD |= (1 << PORTD5); // Servo 4 - D5
 6d0:	8b b1       	in	r24, 0x0b	; 11
 6d2:	80 62       	ori	r24, 0x20	; 32
 6d4:	8b b9       	out	0x0b, r24	; 11
	}

	// Servo 1
	if (timer1_counter >= servo_ticks[0])
 6d6:	20 91 10 01 	lds	r18, 0x0110	; 0x800110 <servo_ticks>
 6da:	30 91 11 01 	lds	r19, 0x0111	; 0x800111 <servo_ticks+0x1>
 6de:	80 91 3a 01 	lds	r24, 0x013A	; 0x80013a <timer1_counter>
 6e2:	90 91 3b 01 	lds	r25, 0x013B	; 0x80013b <timer1_counter+0x1>
 6e6:	82 17       	cp	r24, r18
 6e8:	93 07       	cpc	r25, r19
 6ea:	18 f0       	brcs	.+6      	; 0x6f2 <__vector_11+0x52>
	{
		PORTB &= ~(1 << PORTB1);
 6ec:	85 b1       	in	r24, 0x05	; 5
 6ee:	8d 7f       	andi	r24, 0xFD	; 253
 6f0:	85 b9       	out	0x05, r24	; 5
	}

	// Servo 2
	if (timer1_counter >= servo_ticks[1])
 6f2:	20 91 12 01 	lds	r18, 0x0112	; 0x800112 <servo_ticks+0x2>
 6f6:	30 91 13 01 	lds	r19, 0x0113	; 0x800113 <servo_ticks+0x3>
 6fa:	80 91 3a 01 	lds	r24, 0x013A	; 0x80013a <timer1_counter>
 6fe:	90 91 3b 01 	lds	r25, 0x013B	; 0x80013b <timer1_counter+0x1>
 702:	82 17       	cp	r24, r18
 704:	93 07       	cpc	r25, r19
 706:	18 f0       	brcs	.+6      	; 0x70e <__vector_11+0x6e>
	{
		PORTB &= ~(1 << PORTB2);
 708:	85 b1       	in	r24, 0x05	; 5
 70a:	8b 7f       	andi	r24, 0xFB	; 251
 70c:	85 b9       	out	0x05, r24	; 5
	}

	// Servo 3
	if (timer1_counter >= servo_ticks[2])
 70e:	20 91 14 01 	lds	r18, 0x0114	; 0x800114 <servo_ticks+0x4>
 712:	30 91 15 01 	lds	r19, 0x0115	; 0x800115 <servo_ticks+0x5>
 716:	80 91 3a 01 	lds	r24, 0x013A	; 0x80013a <timer1_counter>
 71a:	90 91 3b 01 	lds	r25, 0x013B	; 0x80013b <timer1_counter+0x1>
 71e:	82 17       	cp	r24, r18
 720:	93 07       	cpc	r25, r19
 722:	18 f0       	brcs	.+6      	; 0x72a <__vector_11+0x8a>
	{
		PORTB &= ~(1 << PORTB3);
 724:	85 b1       	in	r24, 0x05	; 5
 726:	87 7f       	andi	r24, 0xF7	; 247
 728:	85 b9       	out	0x05, r24	; 5
	}

	// Servo 4
	if (timer1_counter >= servo_ticks[3])
 72a:	20 91 16 01 	lds	r18, 0x0116	; 0x800116 <servo_ticks+0x6>
 72e:	30 91 17 01 	lds	r19, 0x0117	; 0x800117 <servo_ticks+0x7>
 732:	80 91 3a 01 	lds	r24, 0x013A	; 0x80013a <timer1_counter>
 736:	90 91 3b 01 	lds	r25, 0x013B	; 0x80013b <timer1_counter+0x1>
 73a:	82 17       	cp	r24, r18
 73c:	93 07       	cpc	r25, r19
 73e:	18 f0       	brcs	.+6      	; 0x746 <__vector_11+0xa6>
	{
		PORTD &= ~(1 << PORTD5);
 740:	8b b1       	in	r24, 0x0b	; 11
 742:	8f 7d       	andi	r24, 0xDF	; 223
 744:	8b b9       	out	0x0b, r24	; 11
	}

	timer1_counter++;
 746:	80 91 3a 01 	lds	r24, 0x013A	; 0x80013a <timer1_counter>
 74a:	90 91 3b 01 	lds	r25, 0x013B	; 0x80013b <timer1_counter+0x1>
 74e:	01 96       	adiw	r24, 0x01	; 1
 750:	90 93 3b 01 	sts	0x013B, r25	; 0x80013b <timer1_counter+0x1>
 754:	80 93 3a 01 	sts	0x013A, r24	; 0x80013a <timer1_counter>

	// Reiniciar frame cada 20 ms
	if (timer1_counter >= SERVO_FRAME_TICKS)
 758:	80 91 3a 01 	lds	r24, 0x013A	; 0x80013a <timer1_counter>
 75c:	90 91 3b 01 	lds	r25, 0x013B	; 0x80013b <timer1_counter+0x1>
 760:	80 39       	cpi	r24, 0x90	; 144
 762:	91 40       	sbci	r25, 0x01	; 1
 764:	20 f0       	brcs	.+8      	; 0x76e <__vector_11+0xce>
	{
		timer1_counter = 0;
 766:	10 92 3b 01 	sts	0x013B, r1	; 0x80013b <timer1_counter+0x1>
 76a:	10 92 3a 01 	sts	0x013A, r1	; 0x80013a <timer1_counter>
	}
 76e:	9f 91       	pop	r25
 770:	8f 91       	pop	r24
 772:	3f 91       	pop	r19
 774:	2f 91       	pop	r18
 776:	0f 90       	pop	r0
 778:	0f be       	out	0x3f, r0	; 63
 77a:	0f 90       	pop	r0
 77c:	1f 90       	pop	r1
 77e:	18 95       	reti

00000780 <UART_Init>:

/****************************************/
// Inicializar UART
void UART_Init(void)
{
	UBRR0H = (uint8_t)(UBRR_VALUE >> 8);
 780:	10 92 c5 00 	sts	0x00C5, r1	; 0x8000c5 <__TEXT_REGION_LENGTH__+0x7f80c5>
	UBRR0L = (uint8_t)(UBRR_VALUE);
 784:	87 e6       	ldi	r24, 0x67	; 103
 786:	80 93 c4 00 	sts	0x00C4, r24	; 0x8000c4 <__TEXT_REGION_LENGTH__+0x7f80c4>

	UCSR0B = (1 << RXEN0) | (1 << TXEN0);
 78a:	88 e1       	ldi	r24, 0x18	; 24
 78c:	80 93 c1 00 	sts	0x00C1, r24	; 0x8000c1 <__TEXT_REGION_LENGTH__+0x7f80c1>

	UCSR0C = (1 << UCSZ01) | (1 << UCSZ00);
 790:	86 e0       	ldi	r24, 0x06	; 6
 792:	80 93 c2 00 	sts	0x00C2, r24	; 0x8000c2 <__TEXT_REGION_LENGTH__+0x7f80c2>
 796:	08 95       	ret

00000798 <UART_Available>:

/****************************************/
// Verificar si hay dato disponible
uint8_t UART_Available(void)
{
	return (UCSR0A & (1 << RXC0));
 798:	80 91 c0 00 	lds	r24, 0x00C0	; 0x8000c0 <__TEXT_REGION_LENGTH__+0x7f80c0>
}
 79c:	80 78       	andi	r24, 0x80	; 128
 79e:	08 95       	ret

000007a0 <UART_SendChar>:

/****************************************/
// Enviar caracter
void UART_SendChar(char data)
{
	while (!(UCSR0A & (1 << UDRE0)))
 7a0:	90 91 c0 00 	lds	r25, 0x00C0	; 0x8000c0 <__TEXT_REGION_LENGTH__+0x7f80c0>
 7a4:	95 ff       	sbrs	r25, 5
 7a6:	fc cf       	rjmp	.-8      	; 0x7a0 <UART_SendChar>
	{
	}

	UDR0 = data;
 7a8:	80 93 c6 00 	sts	0x00C6, r24	; 0x8000c6 <__TEXT_REGION_LENGTH__+0x7f80c6>
 7ac:	08 95       	ret

000007ae <UART_ReceiveChar>:

/****************************************/
// Recibir caracter
char UART_ReceiveChar(void)
{
	while (!(UCSR0A & (1 << RXC0)))
 7ae:	80 91 c0 00 	lds	r24, 0x00C0	; 0x8000c0 <__TEXT_REGION_LENGTH__+0x7f80c0>
 7b2:	88 23       	and	r24, r24
 7b4:	e4 f7       	brge	.-8      	; 0x7ae <UART_ReceiveChar>
	{
	}

	return UDR0;
 7b6:	80 91 c6 00 	lds	r24, 0x00C6	; 0x8000c6 <__TEXT_REGION_LENGTH__+0x7f80c6>
}
 7ba:	08 95       	ret

000007bc <UART_SendText>:

/****************************************/
// Enviar texto
void UART_SendText(char *text)
{
 7bc:	cf 93       	push	r28
 7be:	df 93       	push	r29
 7c0:	ec 01       	movw	r28, r24
	while (*text)
 7c2:	03 c0       	rjmp	.+6      	; 0x7ca <UART_SendText+0xe>
	{
		UART_SendChar(*text);
 7c4:	0e 94 d0 03 	call	0x7a0	; 0x7a0 <UART_SendChar>
		text++;
 7c8:	21 96       	adiw	r28, 0x01	; 1

/****************************************/
// Enviar texto
void UART_SendText(char *text)
{
	while (*text)
 7ca:	88 81       	ld	r24, Y
 7cc:	81 11       	cpse	r24, r1
 7ce:	fa cf       	rjmp	.-12     	; 0x7c4 <UART_SendText+0x8>
	{
		UART_SendChar(*text);
		text++;
	}
}
 7d0:	df 91       	pop	r29
 7d2:	cf 91       	pop	r28
 7d4:	08 95       	ret

000007d6 <UART_SendNumber>:

/****************************************/
// Enviar número 0-255
void UART_SendNumber(uint8_t number)
{
 7d6:	1f 93       	push	r17
 7d8:	cf 93       	push	r28
 7da:	df 93       	push	r29
 7dc:	00 d0       	rcall	.+0      	; 0x7de <UART_SendNumber+0x8>
 7de:	00 d0       	rcall	.+0      	; 0x7e0 <UART_SendNumber+0xa>
 7e0:	cd b7       	in	r28, 0x3d	; 61
 7e2:	de b7       	in	r29, 0x3e	; 62
	char buffer[4];
	uint8_t i = 0;

	if (number == 0)
 7e4:	81 11       	cpse	r24, r1
 7e6:	1d c0       	rjmp	.+58     	; 0x822 <__DATA_REGION_LENGTH__+0x22>
	{
		UART_SendChar('0');
 7e8:	80 e3       	ldi	r24, 0x30	; 48
 7ea:	0e 94 d0 03 	call	0x7a0	; 0x7a0 <UART_SendChar>
 7ee:	29 c0       	rjmp	.+82     	; 0x842 <__DATA_REGION_LENGTH__+0x42>
		return;
	}

	while (number > 0)
	{
		buffer[i] = (number % 10) + '0';
 7f0:	e1 e0       	ldi	r30, 0x01	; 1
 7f2:	f0 e0       	ldi	r31, 0x00	; 0
 7f4:	ec 0f       	add	r30, r28
 7f6:	fd 1f       	adc	r31, r29
 7f8:	e1 0f       	add	r30, r17
 7fa:	f1 1d       	adc	r31, r1
 7fc:	9d ec       	ldi	r25, 0xCD	; 205
 7fe:	89 9f       	mul	r24, r25
 800:	91 2d       	mov	r25, r1
 802:	11 24       	eor	r1, r1
 804:	96 95       	lsr	r25
 806:	96 95       	lsr	r25
 808:	96 95       	lsr	r25
 80a:	39 2f       	mov	r19, r25
 80c:	33 0f       	add	r19, r19
 80e:	23 2f       	mov	r18, r19
 810:	22 0f       	add	r18, r18
 812:	22 0f       	add	r18, r18
 814:	23 0f       	add	r18, r19
 816:	82 1b       	sub	r24, r18
 818:	80 5d       	subi	r24, 0xD0	; 208
 81a:	80 83       	st	Z, r24
		number /= 10;
 81c:	89 2f       	mov	r24, r25
		i++;
 81e:	1f 5f       	subi	r17, 0xFF	; 255
 820:	01 c0       	rjmp	.+2      	; 0x824 <__DATA_REGION_LENGTH__+0x24>
 822:	10 e0       	ldi	r17, 0x00	; 0
	{
		UART_SendChar('0');
		return;
	}

	while (number > 0)
 824:	81 11       	cpse	r24, r1
 826:	e4 cf       	rjmp	.-56     	; 0x7f0 <UART_SendNumber+0x1a>
 828:	0a c0       	rjmp	.+20     	; 0x83e <__DATA_REGION_LENGTH__+0x3e>
		i++;
	}

	while (i > 0)
	{
		i--;
 82a:	11 50       	subi	r17, 0x01	; 1
		UART_SendChar(buffer[i]);
 82c:	e1 e0       	ldi	r30, 0x01	; 1
 82e:	f0 e0       	ldi	r31, 0x00	; 0
 830:	ec 0f       	add	r30, r28
 832:	fd 1f       	adc	r31, r29
 834:	e1 0f       	add	r30, r17
 836:	f1 1d       	adc	r31, r1
 838:	80 81       	ld	r24, Z
 83a:	0e 94 d0 03 	call	0x7a0	; 0x7a0 <UART_SendChar>
		buffer[i] = (number % 10) + '0';
		number /= 10;
		i++;
	}

	while (i > 0)
 83e:	11 11       	cpse	r17, r1
 840:	f4 cf       	rjmp	.-24     	; 0x82a <__DATA_REGION_LENGTH__+0x2a>
	{
		i--;
		UART_SendChar(buffer[i]);
	}
 842:	0f 90       	pop	r0
 844:	0f 90       	pop	r0
 846:	0f 90       	pop	r0
 848:	0f 90       	pop	r0
 84a:	df 91       	pop	r29
 84c:	cf 91       	pop	r28
 84e:	1f 91       	pop	r17
 850:	08 95       	ret

00000852 <__udivmodsi4>:
 852:	a1 e2       	ldi	r26, 0x21	; 33
 854:	1a 2e       	mov	r1, r26
 856:	aa 1b       	sub	r26, r26
 858:	bb 1b       	sub	r27, r27
 85a:	fd 01       	movw	r30, r26
 85c:	0d c0       	rjmp	.+26     	; 0x878 <__udivmodsi4_ep>

0000085e <__udivmodsi4_loop>:
 85e:	aa 1f       	adc	r26, r26
 860:	bb 1f       	adc	r27, r27
 862:	ee 1f       	adc	r30, r30
 864:	ff 1f       	adc	r31, r31
 866:	a2 17       	cp	r26, r18
 868:	b3 07       	cpc	r27, r19
 86a:	e4 07       	cpc	r30, r20
 86c:	f5 07       	cpc	r31, r21
 86e:	20 f0       	brcs	.+8      	; 0x878 <__udivmodsi4_ep>
 870:	a2 1b       	sub	r26, r18
 872:	b3 0b       	sbc	r27, r19
 874:	e4 0b       	sbc	r30, r20
 876:	f5 0b       	sbc	r31, r21

00000878 <__udivmodsi4_ep>:
 878:	66 1f       	adc	r22, r22
 87a:	77 1f       	adc	r23, r23
 87c:	88 1f       	adc	r24, r24
 87e:	99 1f       	adc	r25, r25
 880:	1a 94       	dec	r1
 882:	69 f7       	brne	.-38     	; 0x85e <__udivmodsi4_loop>
 884:	60 95       	com	r22
 886:	70 95       	com	r23
 888:	80 95       	com	r24
 88a:	90 95       	com	r25
 88c:	9b 01       	movw	r18, r22
 88e:	ac 01       	movw	r20, r24
 890:	bd 01       	movw	r22, r26
 892:	cf 01       	movw	r24, r30
 894:	08 95       	ret

00000896 <__umulhisi3>:
 896:	a2 9f       	mul	r26, r18
 898:	b0 01       	movw	r22, r0
 89a:	b3 9f       	mul	r27, r19
 89c:	c0 01       	movw	r24, r0
 89e:	a3 9f       	mul	r26, r19
 8a0:	70 0d       	add	r23, r0
 8a2:	81 1d       	adc	r24, r1
 8a4:	11 24       	eor	r1, r1
 8a6:	91 1d       	adc	r25, r1
 8a8:	b2 9f       	mul	r27, r18
 8aa:	70 0d       	add	r23, r0
 8ac:	81 1d       	adc	r24, r1
 8ae:	11 24       	eor	r1, r1
 8b0:	91 1d       	adc	r25, r1
 8b2:	08 95       	ret

000008b4 <eeprom_read_byte>:
 8b4:	f9 99       	sbic	0x1f, 1	; 31
 8b6:	fe cf       	rjmp	.-4      	; 0x8b4 <eeprom_read_byte>
 8b8:	92 bd       	out	0x22, r25	; 34
 8ba:	81 bd       	out	0x21, r24	; 33
 8bc:	f8 9a       	sbi	0x1f, 0	; 31
 8be:	99 27       	eor	r25, r25
 8c0:	80 b5       	in	r24, 0x20	; 32
 8c2:	08 95       	ret

000008c4 <eeprom_update_byte>:
 8c4:	26 2f       	mov	r18, r22

000008c6 <eeprom_update_r18>:
 8c6:	f9 99       	sbic	0x1f, 1	; 31
 8c8:	fe cf       	rjmp	.-4      	; 0x8c6 <eeprom_update_r18>
 8ca:	92 bd       	out	0x22, r25	; 34
 8cc:	81 bd       	out	0x21, r24	; 33
 8ce:	f8 9a       	sbi	0x1f, 0	; 31
 8d0:	01 97       	sbiw	r24, 0x01	; 1
 8d2:	00 b4       	in	r0, 0x20	; 32
 8d4:	02 16       	cp	r0, r18
 8d6:	39 f0       	breq	.+14     	; 0x8e6 <eeprom_update_r18+0x20>
 8d8:	1f ba       	out	0x1f, r1	; 31
 8da:	20 bd       	out	0x20, r18	; 32
 8dc:	0f b6       	in	r0, 0x3f	; 63
 8de:	f8 94       	cli
 8e0:	fa 9a       	sbi	0x1f, 2	; 31
 8e2:	f9 9a       	sbi	0x1f, 1	; 31
 8e4:	0f be       	out	0x3f, r0	; 63
 8e6:	08 95       	ret

000008e8 <_exit>:
 8e8:	f8 94       	cli

000008ea <__stop_program>:
 8ea:	ff cf       	rjmp	.-2      	; 0x8ea <__stop_program>
